(ioptparse
Values
p0
(dp1
S'bSkipLambdaIndex'
p2
S''
p3
sS'methods'
p4
g3
sS'prefix'
p5
S'actual_grad_'
p6
sS'verbose'
p7
I00
sS'lv_names'
p8
(lp9
g3
asS'temperature'
p10
I298
sS'ddFs'
p11
(lp12
(dp13
S'TI-CUBIC'
p14
cnumpy.core.multiarray
scalar
p15
(cnumpy
dtype
p16
(S'f8'
p17
I0
I1
tp18
Rp19
(I3
S'<'
p20
NNNI-1
I-1
I0
tp21
bS'\x00\x00\x00\x00\x00\x00\x00\x00'
p22
tp23
Rp24
sS'TI'
p25
g15
(g19
S'\x00\x00\x00\x00\x00\x00\x00\x00'
p26
tp27
Rp28
sa(dp29
g14
g15
(g19
S'\xee\xa3\x13y\x10\xa4m?'
p30
tp31
Rp32
sg25
g15
(g19
S'\xbf\xe5~\xf5#\xdek?'
p33
tp34
Rp35
sa(dp36
g14
g15
(g19
S'\xee\xa3\x13y\x10\xa4m?'
p37
tp38
Rp39
sg25
g15
(g19
S'\xbf\xe5~\xf5#\xdek?'
p40
tp41
Rp42
sasS'overlap'
p43
I00
sS'units'
p44
S'(kcal/mol)'
p45
sS'df_allk'
p46
cnumpy.core.multiarray
_reconstruct
p47
(cnumpy
ndarray
p48
(I0
tp49
S'b'
p50
tp51
Rp52
(I1
(I15
tp53
g16
(S'O8'
p54
I0
I1
tp55
Rp56
(I3
S'|'
p57
NNNI-1
I-1
I63
tp58
bI00
(lp59
(dp60
S'TI-CUBIC'
p61
g15
(g19
S'e2\xf18.\x04\x96?'
p62
tp63
Rp64
sg25
g15
(g19
S'\x13\x9f=F!\xd4\x95?'
p65
tp66
Rp67
sa(dp68
g61
g15
(g19
S'\xd6\xe9}e*\x14\x9b?'
p69
tp70
Rp71
sg25
g15
(g19
S'q\x00v\x81\xbd\xe5\x9a?'
p72
tp73
Rp74
sa(dp75
g61
g15
(g19
S'\xf8\xabG03m\xa1?'
p76
tp77
Rp78
sg25
g15
(g19
S'\xea\xc4M\xb0\x82\x9c\xa1?'
p79
tp80
Rp81
sa(dp82
g61
g15
(g19
S'\x9cu\x1b\xd00\xda\xa5?'
p83
tp84
Rp85
sg25
g15
(g19
S"\x84Ny'\x97\xc1\xa5?"
p86
tp87
Rp88
sa(dp89
g61
g15
(g19
S'\x0c\xce\xed\xfe\xdd\xeb\xa8?'
p90
tp91
Rp92
sg25
g15
(g19
S'|;:\xdci\xe3\xa8?'
p93
tp94
Rp95
sa(dp96
g61
g15
(g19
S'\xaa\xdb\xc2^\xb1K\xbb?'
p97
tp98
Rp99
sg25
g15
(g19
S'\xb9\xe8\xcb\x9b<e\xbb?'
p100
tp101
Rp102
sa(dp103
g61
g15
(g19
S'f:\xe5\xdc\xec\xd9\xbb?'
p104
tp105
Rp106
sg25
g15
(g19
S'\x93\xa2\xe5\x8c\x9e\xd9\xbb?'
p107
tp108
Rp109
sa(dp110
g61
g15
(g19
S'\t\x84\x7f\xe0\xf1w\xb9?'
p111
tp112
Rp113
sg25
g15
(g19
S'9\xc4\xb9/\x1a\x83\xb9?'
p114
tp115
Rp116
sa(dp117
g61
g15
(g19
S'|\xbb\xaao\xea\xd9\xa6?'
p118
tp119
Rp120
sg25
g15
(g19
S'8\xfc\x9b_\x01\t\xa7?'
p121
tp122
Rp123
sa(dp124
g61
g15
(g19
S't\x90\x88M\xb6J\xa6?'
p125
tp126
Rp127
sg25
g15
(g19
S'\x81w\x83\xc5\x94w\xa6?'
p128
tp129
Rp130
sa(dp131
g61
g15
(g19
S'\x1f\x02t\xef\x03B\xb7?'
p132
tp133
Rp134
sg25
g15
(g19
S'u\xafD98\x92\xb8?'
p135
tp136
Rp137
sa(dp138
g61
g15
(g19
S'\xb9\x11\x9e\xa7]\xfa\xa8?'
p139
tp140
Rp141
sg25
g15
(g19
S'\xf2DX\xc5\xb9\x0e\xa9?'
p142
tp143
Rp144
sa(dp145
g61
g15
(g19
S'\xfd\x17P\xd2\xc0\xb2\xa6?'
p146
tp147
Rp148
sg25
g15
(g19
S'\x16\x8fX#\xec\x04\xa7?'
p149
tp150
Rp151
sa(dp152
g61
g15
(g19
S'\x03@\x90\x01\x90\xef\xa0?'
p153
tp154
Rp155
sg25
g15
(g19
S"\x85Q\xb2\x0c'\xe1\xa0?"
p156
tp157
Rp158
sa(dp159
g61
g15
(g19
S'<\x12\xc5*\xfa0\x89?'
p160
tp161
Rp162
sg25
g15
(g19
S'\xcb\xb5\x02\xe3\xa7+\x89?'
p163
tp164
Rp165
satp166
bsS'breakdown'
p167
I01
sS'datafile_directory'
p168
S'/Users/pavel/shirts/clean_scripts/xvg_s/oct_20/stefano/run_001/run001_vac_MetEth/zort_gromacs_skip_lambda/ggit/alchemical-free-energy/sire'
p169
sS'bIgnoreWL'
p170
I00
sS'init_with'
p171
S'BAR'
p172
sS'dFs'
p173
(lp174
(dp175
g14
I0
sg25
I0
sa(dp176
g14
g15
(g19
S'\x07+\x92B\xc2\xc8\xe9?'
p177
tp178
Rp179
sg25
g15
(g19
S'5\xe6\xe7\xb4q\x00\xea?'
p180
tp181
Rp182
sa(dp183
g14
g15
(g19
S'\x07+\x92B\xc2\xc8\xe9?'
p184
tp185
Rp186
sg25
g15
(g19
S'5\xe6\xe7\xb4q\x00\xea?'
p187
tp188
Rp189
sasS'output_directory'
p190
S'.'
p191
sS'beta'
p192
F0.40359852979970595
sS'ddf_allk'
p193
g47
(g48
(I0
tp194
g50
tp195
Rp196
(I1
(I15
tp197
g56
I00
(lp198
(dp199
g61
g15
(g19
S'\xc8J\xcd\xe75\xfe-?'
p200
tp201
Rp202
sg25
g15
(g19
S'!;\xd5\xfb\t\xaa+?'
p203
tp204
Rp205
sa(dp206
g61
g15
(g19
S'\xe3-\x0c\xec\x89\x1d3?'
p207
tp208
Rp209
sg25
g15
(g19
S'U=\xfc,\xed\x171?'
p210
tp211
Rp212
sa(dp213
g61
g15
(g19
S'FT\xee\xc0\xa7X;?'
p214
tp215
Rp216
sg25
g15
(g19
S'O|&\xc2\xa337?'
p217
tp218
Rp219
sa(dp220
g61
g15
(g19
S'c\x93\xebJ\x9f\xcf@?'
p221
tp222
Rp223
sg25
g15
(g19
S'C\x00\xb3\xb5\xeb\xbf<?'
p224
tp225
Rp226
sa(dp227
g61
g15
(g19
S'P\nn\xa3\x7f\x06C?'
p228
tp229
Rp230
sg25
g15
(g19
S'\x96\x18\xfb\xaf\xca\xa5@?'
p231
tp232
Rp233
sa(dp234
g61
g15
(g19
S'_\xc7\x9cz\xceNZ?'
p235
tp236
Rp237
sg25
g15
(g19
S'y\x08\x81r#\xd2R?'
p238
tp239
Rp240
sa(dp241
g61
g15
(g19
S'O?Kg\x0eAW?'
p242
tp243
Rp244
sg25
g15
(g19
S':4\xef\xcc\xda9S?'
p245
tp246
Rp247
sa(dp248
g61
g15
(g19
S'\x01,w\xb6*\x17W?'
p249
tp250
Rp251
sg25
g15
(g19
S'\x90F\xd8T\xed\x8fQ?'
p252
tp253
Rp254
sa(dp255
g61
g15
(g19
S'\xbaP\xc7\xcc\xd4FA?'
p256
tp257
Rp258
sg25
g15
(g19
S'J\x14\xe3>\r-??'
p259
tp260
Rp261
sa(dp262
g61
g15
(g19
S'\xc46\x92\x1aN0@?'
p263
tp264
Rp265
sg25
g15
(g19
S'\\\xdaZad$=?'
p266
tp267
Rp268
sa(dp269
g61
g15
(g19
S'\xa4oM\x8c\xed\xeaX?'
p270
tp271
Rp272
sg25
g15
(g19
S']\xfd\xb5\x9b$\x92M?'
p273
tp274
Rp275
sa(dp276
g61
g15
(g19
S'\x93=:\xf6PLA?'
p277
tp278
Rp279
sg25
g15
(g19
S'\xa0\x95]\xf1\xf3/;?'
p280
tp281
Rp282
sa(dp283
g61
g15
(g19
S'\xe9\xb0\x8c0Rv??'
p284
tp285
Rp286
sg25
g15
(g19
S'=\xebk#\xc9&7?'
p287
tp288
Rp289
sa(dp290
g61
g15
(g19
S':\x97\x1a\xa1w\x817?'
p291
tp292
Rp293
sg25
g15
(g19
S'\xef\xb4eN\xb7\xb70?'
p294
tp295
Rp296
sa(dp297
g61
g15
(g19
S'\xeb\xb27\xfe\xd0\x85\x19?'
p298
tp299
Rp300
sg25
g15
(g19
S'"W\x12\xfa\x95)\x19?'
p301
tp302
Rp303
satp304
bsS'when_analyzed'
p305
S'Sat Nov 29 19:50:21 2014'
p306
sS'uncorr_threshold'
p307
I0
sS'beta_report'
p308
F0.40359852979970595
sS'decimal'
p309
I3
sS'bForwrev'
p310
I0
sS'bCFM'
p311
I00
sS'suffix'
p312
S'dat'
p313
sS'equiltime'
p314
I0
sS'relative_tolerance'
p315
F1e-10
sS'software'
p316
S'Sire'
p317
sb.